target datalayout = "e-m:e-p270:32:32-p271:32:32-p272:64:64-i64:64-i128:128-f80:128-n8:16:32:64-S128"
target triple = "x86_64-pc-linux-gnu"

%struct.crypto_secretstream_xchacha20poly1305_state = type { [32 x i8], [12 x i8], [8 x i8] }
%struct.crypto_onetimeauth_poly1305_state = type { [256 x i8] }

@_pad0 = internal constant [16 x i8] zeroinitializer, align 16

; Function Attrs: inlinehint nounwind ssp uwtable
define internal void @_crypto_secretstream_xchacha20poly1305_counter_reset(ptr noundef %0) #2 {
  %2 = alloca ptr, align 8
  store ptr %0, ptr %2, align 8
  %3 = load ptr, ptr %2, align 8
  %4 = getelementptr inbounds nuw %struct.crypto_secretstream_xchacha20poly1305_state, ptr %3, i32 0, i32 1
  %5 = getelementptr inbounds [12 x i8], ptr %4, i64 0, i64 0
  %6 = call ptr @memset.inline(ptr noundef %5, i32 noundef 0, i64 noundef 4) #8
  %7 = load ptr, ptr %2, align 8
  %8 = getelementptr inbounds nuw %struct.crypto_secretstream_xchacha20poly1305_state, ptr %7, i32 0, i32 1
  %9 = getelementptr [12 x i8], ptr %8, i64 0, i64 0
  store i8 1, ptr %9, align 1
  ret void
}

; Function Attrs: alwaysinline nounwind
define internal ptr @memcpy.inline(ptr noalias nonnull %0, ptr noalias nonnull %1, i64 %2) #3 {
  %4 = alloca ptr, align 8
  %5 = alloca ptr, align 8
  %6 = alloca i64, align 8
  store ptr %0, ptr %4, align 8
  store ptr %1, ptr %5, align 8
  store i64 %2, ptr %6, align 8
  %7 = load ptr, ptr %4, align 8
  %8 = load ptr, ptr %5, align 8
  %9 = load i64, ptr %6, align 8
  %10 = load ptr, ptr %4, align 8
  %11 = call i64 @llvm.objectsize.i64.p0(ptr %10, i1 false, i1 true, i1 true)
  %12 = call ptr @__memcpy_chk(ptr noundef %7, ptr noundef %8, i64 noundef %9, i64 noundef %11) #8
  ret ptr %12
}

; Function Attrs: nounwind ssp uwtable
define dso_local void @crypto_secretstream_xchacha20poly1305_rekey(ptr noundef %0) #0 {
  %2 = alloca ptr, align 8
  %3 = alloca [40 x i8], align 16
  %4 = alloca i64, align 8
  store ptr %0, ptr %2, align 8
  call void @llvm.lifetime.start.p0(i64 40, ptr %3) #8
  call void @llvm.lifetime.start.p0(i64 8, ptr %4) #8
  store i64 0, ptr %4, align 8
  br label %5

5:                                                ; preds = %16, %1
  %6 = load i64, ptr %4, align 8
  %7 = icmp ult i64 %6, 32
  br i1 %7, label %8, label %19

8:                                                ; preds = %5
  %9 = load ptr, ptr %2, align 8
  %10 = getelementptr inbounds nuw %struct.crypto_secretstream_xchacha20poly1305_state, ptr %9, i32 0, i32 0
  %11 = load i64, ptr %4, align 8
  %12 = getelementptr [32 x i8], ptr %10, i64 0, i64 %11
  %13 = load i8, ptr %12, align 1
  %14 = load i64, ptr %4, align 8
  %15 = getelementptr [40 x i8], ptr %3, i64 0, i64 %14
  store i8 %13, ptr %15, align 1
  br label %16

16:                                               ; preds = %8
  %17 = load i64, ptr %4, align 8
  %18 = add i64 %17, 1
  store i64 %18, ptr %4, align 8
  br label %5, !llvm.loop !4

19:                                               ; preds = %5
  store i64 0, ptr %4, align 8
  br label %20

20:                                               ; preds = %34, %19
  %21 = load i64, ptr %4, align 8
  %22 = icmp ult i64 %21, 8
  br i1 %22, label %23, label %37

23:                                               ; preds = %20
  %24 = load ptr, ptr %2, align 8
  %25 = getelementptr inbounds nuw %struct.crypto_secretstream_xchacha20poly1305_state, ptr %24, i32 0, i32 1
  %26 = getelementptr inbounds [12 x i8], ptr %25, i64 0, i64 0
  %27 = getelementptr i8, ptr %26, i64 4
  %28 = load i64, ptr %4, align 8
  %29 = getelementptr i8, ptr %27, i64 %28
  %30 = load i8, ptr %29, align 1
  %31 = load i64, ptr %4, align 8
  %32 = add i64 32, %31
  %33 = getelementptr [40 x i8], ptr %3, i64 0, i64 %32
  store i8 %30, ptr %33, align 1
  br label %34

34:                                               ; preds = %23
  %35 = load i64, ptr %4, align 8
  %36 = add i64 %35, 1
  store i64 %36, ptr %4, align 8
  br label %20, !llvm.loop !6

37:                                               ; preds = %20
  %38 = getelementptr inbounds [40 x i8], ptr %3, i64 0, i64 0
  %39 = getelementptr inbounds [40 x i8], ptr %3, i64 0, i64 0
  %40 = load ptr, ptr %2, align 8
  %41 = getelementptr inbounds nuw %struct.crypto_secretstream_xchacha20poly1305_state, ptr %40, i32 0, i32 1
  %42 = getelementptr inbounds [12 x i8], ptr %41, i64 0, i64 0
  %43 = load ptr, ptr %2, align 8
  %44 = getelementptr inbounds nuw %struct.crypto_secretstream_xchacha20poly1305_state, ptr %43, i32 0, i32 0
  %45 = getelementptr inbounds [32 x i8], ptr %44, i64 0, i64 0
  %46 = call i32 @crypto_stream_chacha20_ietf_xor(ptr noundef %38, ptr noundef %39, i64 noundef 40, ptr noundef %42, ptr noundef %45)
  store i64 0, ptr %4, align 8
  br label %47

47:                                               ; preds = %58, %37
  %48 = load i64, ptr %4, align 8
  %49 = icmp ult i64 %48, 32
  br i1 %49, label %50, label %61

50:                                               ; preds = %47
  %51 = load i64, ptr %4, align 8
  %52 = getelementptr [40 x i8], ptr %3, i64 0, i64 %51
  %53 = load i8, ptr %52, align 1
  %54 = load ptr, ptr %2, align 8
  %55 = getelementptr inbounds nuw %struct.crypto_secretstream_xchacha20poly1305_state, ptr %54, i32 0, i32 0
  %56 = load i64, ptr %4, align 8
  %57 = getelementptr [32 x i8], ptr %55, i64 0, i64 %56
  store i8 %53, ptr %57, align 1
  br label %58

58:                                               ; preds = %50
  %59 = load i64, ptr %4, align 8
  %60 = add i64 %59, 1
  store i64 %60, ptr %4, align 8
  br label %47, !llvm.loop !7

61:                                               ; preds = %47
  store i64 0, ptr %4, align 8
  br label %62

62:                                               ; preds = %76, %61
  %63 = load i64, ptr %4, align 8
  %64 = icmp ult i64 %63, 8
  br i1 %64, label %65, label %79

65:                                               ; preds = %62
  %66 = load i64, ptr %4, align 8
  %67 = add i64 32, %66
  %68 = getelementptr [40 x i8], ptr %3, i64 0, i64 %67
  %69 = load i8, ptr %68, align 1
  %70 = load ptr, ptr %2, align 8
  %71 = getelementptr inbounds nuw %struct.crypto_secretstream_xchacha20poly1305_state, ptr %70, i32 0, i32 1
  %72 = getelementptr inbounds [12 x i8], ptr %71, i64 0, i64 0
  %73 = getelementptr i8, ptr %72, i64 4
  %74 = load i64, ptr %4, align 8
  %75 = getelementptr i8, ptr %73, i64 %74
  store i8 %69, ptr %75, align 1
  br label %76

76:                                               ; preds = %65
  %77 = load i64, ptr %4, align 8
  %78 = add i64 %77, 1
  store i64 %78, ptr %4, align 8
  br label %62, !llvm.loop !8

79:                                               ; preds = %62
  %80 = load ptr, ptr %2, align 8
  call void @_crypto_secretstream_xchacha20poly1305_counter_reset(ptr noundef %80)
  call void @llvm.lifetime.end.p0(i64 8, ptr %4) #8
  call void @llvm.lifetime.end.p0(i64 40, ptr %3) #8
  ret void
}

; Function Attrs: inlinehint nounwind ssp uwtable
define internal void @xor_buf(ptr noundef %0, ptr noundef %1, i64 noundef %2) #2 {
  %4 = alloca ptr, align 8
  %5 = alloca ptr, align 8
  %6 = alloca i64, align 8
  %7 = alloca i64, align 8
  store ptr %0, ptr %4, align 8
  store ptr %1, ptr %5, align 8
  store i64 %2, ptr %6, align 8
  call void @llvm.lifetime.start.p0(i64 8, ptr %7) #8
  store i64 0, ptr %7, align 8
  br label %8

8:                                                ; preds = %25, %3
  %9 = load i64, ptr %7, align 8
  %10 = load i64, ptr %6, align 8
  %11 = icmp ult i64 %9, %10
  br i1 %11, label %12, label %28

12:                                               ; preds = %8
  %13 = load ptr, ptr %5, align 8
  %14 = load i64, ptr %7, align 8
  %15 = getelementptr i8, ptr %13, i64 %14
  %16 = load i8, ptr %15, align 1
  %17 = zext i8 %16 to i32
  %18 = load ptr, ptr %4, align 8
  %19 = load i64, ptr %7, align 8
  %20 = getelementptr i8, ptr %18, i64 %19
  %21 = load i8, ptr %20, align 1
  %22 = zext i8 %21 to i32
  %23 = xor i32 %22, %17
  %24 = trunc i32 %23 to i8
  store i8 %24, ptr %20, align 1
  br label %25

25:                                               ; preds = %12
  %26 = load i64, ptr %7, align 8
  %27 = add i64 %26, 1
  store i64 %27, ptr %7, align 8
  br label %8, !llvm.loop !9

28:                                               ; preds = %8
  call void @llvm.lifetime.end.p0(i64 8, ptr %7) #8
  ret void
}

; Function Attrs: inlinehint nounwind ssp uwtable
define internal void @store64_le(ptr noundef %0, i64 noundef %1) #2 {
  %3 = alloca ptr, align 8
  %4 = alloca i64, align 8
  store ptr %0, ptr %3, align 8
  store i64 %1, ptr %4, align 8
  %5 = load ptr, ptr %3, align 8
  %6 = call ptr @memcpy.inline(ptr noundef %5, ptr noundef %4, i64 noundef 8) #8
  ret void
}

; Function Attrs: alwaysinline nounwind
define internal ptr @memset.inline(ptr nonnull %0, i32 %1, i64 %2) #3 {
  %4 = alloca ptr, align 8
  %5 = alloca i32, align 4
  %6 = alloca i64, align 8
  store ptr %0, ptr %4, align 8
  store i32 %1, ptr %5, align 4
  store i64 %2, ptr %6, align 8
  %7 = load ptr, ptr %4, align 8
  %8 = load i32, ptr %5, align 4
  %9 = load i64, ptr %6, align 8
  %10 = load ptr, ptr %4, align 8
  %11 = call i64 @llvm.objectsize.i64.p0(ptr %10, i1 false, i1 true, i1 true)
  %12 = call ptr @__memset_chk(ptr noundef %7, i32 noundef %8, i64 noundef %9, i64 noundef %11) #8
  ret ptr %12
}

; Function Attrs: nounwind ssp uwtable
define dso_local i32 @crypto_secretstream_xchacha20poly1305_push(ptr noundef nonnull %0, ptr noundef %1, ptr noundef %2, ptr noundef %3, i64 noundef %4, ptr noundef %5, i64 noundef %6, i8 noundef zeroext %7) #0 {
  %9 = alloca ptr, align 8
  %10 = alloca ptr, align 8
  %11 = alloca ptr, align 8
  %12 = alloca ptr, align 8
  %13 = alloca i64, align 8
  %14 = alloca ptr, align 8
  %15 = alloca i64, align 8
  %16 = alloca i8, align 1
  %17 = alloca %struct.crypto_onetimeauth_poly1305_state, align 16
  %18 = alloca [64 x i8], align 16
  %19 = alloca [8 x i8], align 1
  %20 = alloca ptr, align 8
  %21 = alloca ptr, align 8
  store ptr %0, ptr %9, align 8
  store ptr %1, ptr %10, align 8
  store ptr %2, ptr %11, align 8
  store ptr %3, ptr %12, align 8
  store i64 %4, ptr %13, align 8
  store ptr %5, ptr %14, align 8
  store i64 %6, ptr %15, align 8
  store i8 %7, ptr %16, align 1
  call void @llvm.lifetime.start.p0(i64 256, ptr %17) #8
  call void @llvm.lifetime.start.p0(i64 64, ptr %18) #8
  call void @llvm.lifetime.start.p0(i64 8, ptr %19) #8
  call void @llvm.lifetime.start.p0(i64 8, ptr %20) #8
  call void @llvm.lifetime.start.p0(i64 8, ptr %21) #8
  %22 = load ptr, ptr %11, align 8
  %23 = icmp ne ptr %22, null
  br i1 %23, label %24, label %26

24:                                               ; preds = %8
  %25 = load ptr, ptr %11, align 8
  store i64 0, ptr %25, align 8
  br label %26

26:                                               ; preds = %24, %8
  %27 = load i64, ptr %13, align 8
  %28 = icmp ugt i64 %27, 274877906816
  br i1 %28, label %29, label %30

29:                                               ; preds = %26
  call void @sodium_misuse() #9
  unreachable

30:                                               ; preds = %26
  %31 = getelementptr inbounds [64 x i8], ptr %18, i64 0, i64 0
  %32 = load ptr, ptr %9, align 8
  %33 = getelementptr inbounds nuw %struct.crypto_secretstream_xchacha20poly1305_state, ptr %32, i32 0, i32 1
  %34 = getelementptr inbounds [12 x i8], ptr %33, i64 0, i64 0
  %35 = load ptr, ptr %9, align 8
  %36 = getelementptr inbounds nuw %struct.crypto_secretstream_xchacha20poly1305_state, ptr %35, i32 0, i32 0
  %37 = getelementptr inbounds [32 x i8], ptr %36, i64 0, i64 0
  %38 = call i32 @crypto_stream_chacha20_ietf(ptr noundef %31, i64 noundef 64, ptr noundef %34, ptr noundef %37)
  %39 = getelementptr inbounds [64 x i8], ptr %18, i64 0, i64 0
  %40 = call i32 @crypto_onetimeauth_poly1305_init(ptr noundef %17, ptr noundef %39)
  %41 = getelementptr inbounds [64 x i8], ptr %18, i64 0, i64 0
  call void @sodium_memzero(ptr noundef %41, i64 noundef 64)
  %42 = load ptr, ptr %14, align 8
  %43 = load i64, ptr %15, align 8
  %44 = call i32 @crypto_onetimeauth_poly1305_update(ptr noundef %17, ptr noundef %42, i64 noundef %43)
  %45 = load i64, ptr %15, align 8
  %46 = sub i64 16, %45
  %47 = and i64 %46, 15
  %48 = call i32 @crypto_onetimeauth_poly1305_update(ptr noundef %17, ptr noundef @_pad0, i64 noundef %47)
  %49 = getelementptr inbounds [64 x i8], ptr %18, i64 0, i64 0
  %50 = call ptr @memset.inline(ptr noundef %49, i32 noundef 0, i64 noundef 64) #8
  %51 = load i8, ptr %16, align 1
  %52 = getelementptr [64 x i8], ptr %18, i64 0, i64 0
  store i8 %51, ptr %52, align 16
  %53 = getelementptr inbounds [64 x i8], ptr %18, i64 0, i64 0
  %54 = getelementptr inbounds [64 x i8], ptr %18, i64 0, i64 0
  %55 = load ptr, ptr %9, align 8
  %56 = getelementptr inbounds nuw %struct.crypto_secretstream_xchacha20poly1305_state, ptr %55, i32 0, i32 1
  %57 = getelementptr inbounds [12 x i8], ptr %56, i64 0, i64 0
  %58 = load ptr, ptr %9, align 8
  %59 = getelementptr inbounds nuw %struct.crypto_secretstream_xchacha20poly1305_state, ptr %58, i32 0, i32 0
  %60 = getelementptr inbounds [32 x i8], ptr %59, i64 0, i64 0
  %61 = call i32 @crypto_stream_chacha20_ietf_xor_ic(ptr noundef %53, ptr noundef %54, i64 noundef 64, ptr noundef %57, i32 noundef 1, ptr noundef %60)
  %62 = getelementptr inbounds [64 x i8], ptr %18, i64 0, i64 0
  %63 = call i32 @crypto_onetimeauth_poly1305_update(ptr noundef %17, ptr noundef %62, i64 noundef 64)
  %64 = getelementptr [64 x i8], ptr %18, i64 0, i64 0
  %65 = load i8, ptr %64, align 16
  %66 = load ptr, ptr %10, align 8
  %67 = getelementptr i8, ptr %66, i64 0
  store i8 %65, ptr %67, align 1
  %68 = load ptr, ptr %10, align 8
  %69 = getelementptr i8, ptr %68, i64 1
  store ptr %69, ptr %20, align 8
  %70 = load ptr, ptr %20, align 8
  %71 = load ptr, ptr %12, align 8
  %72 = load i64, ptr %13, align 8
  %73 = load ptr, ptr %9, align 8
  %74 = getelementptr inbounds nuw %struct.crypto_secretstream_xchacha20poly1305_state, ptr %73, i32 0, i32 1
  %75 = getelementptr inbounds [12 x i8], ptr %74, i64 0, i64 0
  %76 = load ptr, ptr %9, align 8
  %77 = getelementptr inbounds nuw %struct.crypto_secretstream_xchacha20poly1305_state, ptr %76, i32 0, i32 0
  %78 = getelementptr inbounds [32 x i8], ptr %77, i64 0, i64 0
  %79 = call i32 @crypto_stream_chacha20_ietf_xor_ic(ptr noundef %70, ptr noundef %71, i64 noundef %72, ptr noundef %75, i32 noundef 2, ptr noundef %78)
  %80 = load ptr, ptr %20, align 8
  %81 = load i64, ptr %13, align 8
  %82 = call i32 @crypto_onetimeauth_poly1305_update(ptr noundef %17, ptr noundef %80, i64 noundef %81)
  %83 = load i64, ptr %13, align 8
  %84 = add i64 -48, %83
  %85 = and i64 %84, 15
  %86 = call i32 @crypto_onetimeauth_poly1305_update(ptr noundef %17, ptr noundef @_pad0, i64 noundef %85)
  %87 = getelementptr inbounds [8 x i8], ptr %19, i64 0, i64 0
  %88 = load i64, ptr %15, align 8
  call void @store64_le(ptr noundef %87, i64 noundef %88)
  %89 = getelementptr inbounds [8 x i8], ptr %19, i64 0, i64 0
  %90 = call i32 @crypto_onetimeauth_poly1305_update(ptr noundef %17, ptr noundef %89, i64 noundef 8)
  %91 = getelementptr inbounds [8 x i8], ptr %19, i64 0, i64 0
  %92 = load i64, ptr %13, align 8
  %93 = add i64 64, %92
  call void @store64_le(ptr noundef %91, i64 noundef %93)
  %94 = getelementptr inbounds [8 x i8], ptr %19, i64 0, i64 0
  %95 = call i32 @crypto_onetimeauth_poly1305_update(ptr noundef %17, ptr noundef %94, i64 noundef 8)
  %96 = load ptr, ptr %20, align 8
  %97 = load i64, ptr %13, align 8
  %98 = getelementptr i8, ptr %96, i64 %97
  store ptr %98, ptr %21, align 8
  %99 = load ptr, ptr %21, align 8
  %100 = call i32 @crypto_onetimeauth_poly1305_final(ptr noundef %17, ptr noundef %99)
  call void @sodium_memzero(ptr noundef %17, i64 noundef 256)
  %101 = load ptr, ptr %9, align 8
  %102 = getelementptr inbounds nuw %struct.crypto_secretstream_xchacha20poly1305_state, ptr %101, i32 0, i32 1
  %103 = getelementptr inbounds [12 x i8], ptr %102, i64 0, i64 0
  %104 = getelementptr i8, ptr %103, i64 4
  %105 = load ptr, ptr %21, align 8
  call void @xor_buf(ptr noundef %104, ptr noundef %105, i64 noundef 8)
  %106 = load ptr, ptr %9, align 8
  %107 = getelementptr inbounds nuw %struct.crypto_secretstream_xchacha20poly1305_state, ptr %106, i32 0, i32 1
  %108 = getelementptr inbounds [12 x i8], ptr %107, i64 0, i64 0
  call void @sodium_increment(ptr noundef %108, i64 noundef 4)
  %109 = load i8, ptr %16, align 1
  %110 = zext i8 %109 to i32
  %111 = and i32 %110, 2
  %112 = icmp ne i32 %111, 0
  br i1 %112, label %119, label %113

113:                                              ; preds = %30
  %114 = load ptr, ptr %9, align 8
  %115 = getelementptr inbounds nuw %struct.crypto_secretstream_xchacha20poly1305_state, ptr %114, i32 0, i32 1
  %116 = getelementptr inbounds [12 x i8], ptr %115, i64 0, i64 0
  %117 = call i32 @sodium_is_zero(ptr noundef %116, i64 noundef 4)
  %118 = icmp ne i32 %117, 0
  br i1 %118, label %119, label %121

119:                                              ; preds = %113, %30
  %120 = load ptr, ptr %9, align 8
  call void @crypto_secretstream_xchacha20poly1305_rekey(ptr noundef %120)
  br label %121

121:                                              ; preds = %119, %113
  %122 = load ptr, ptr %11, align 8
  %123 = icmp ne ptr %122, null
  br i1 %123, label %124, label %128

124:                                              ; preds = %121
  %125 = load i64, ptr %13, align 8
  %126 = add i64 17, %125
  %127 = load ptr, ptr %11, align 8
  store i64 %126, ptr %127, align 8
  br label %128

128:                                              ; preds = %124, %121
  call void @llvm.lifetime.end.p0(i64 8, ptr %21) #8
  call void @llvm.lifetime.end.p0(i64 8, ptr %20) #8
  call void @llvm.lifetime.end.p0(i64 8, ptr %19) #8
  call void @llvm.lifetime.end.p0(i64 64, ptr %18) #8
  call void @llvm.lifetime.end.p0(i64 256, ptr %17) #8
  ret i32 0
}