; Function Attrs: nounwind ssp uwtable
define dso_local noundef i32 @crypto_secretstream_xchacha20poly1305_push(ptr noundef nonnull %0, ptr noundef %1, ptr noundef writeonly captures(address_is_null) %2, ptr noundef %3, i64 noundef %4, ptr noundef %5, i64 noundef %6, i8 noundef zeroext %7) local_unnamed_addr #0 {
  %9 = alloca [40 x i8], align 16
  %10 = alloca %struct.crypto_onetimeauth_poly1305_state, align 16
  %11 = alloca [64 x i8], align 16
  %12 = alloca [8 x i8], align 8
  call void @llvm.lifetime.start.p0(i64 256, ptr nonnull %10) #7
  call void @llvm.lifetime.start.p0(i64 64, ptr nonnull %11) #7
  call void @llvm.lifetime.start.p0(i64 8, ptr nonnull %12) #7
  %.not = icmp eq ptr %2, null
  br i1 %.not, label %14, label %13

13:                                               ; preds = %8
  store i64 0, ptr %2, align 8
  br label %14

14:                                               ; preds = %13, %8
  %15 = icmp ugt i64 %4, 274877906816
  br i1 %15, label %16, label %17

16:                                               ; preds = %14
  tail call void @sodium_misuse() #8
  unreachable

17:                                               ; preds = %14
  %18 = getelementptr inbounds nuw i8, ptr %0, i64 32
  %19 = call i32 @crypto_stream_chacha20_ietf(ptr noundef nonnull %11, i64 noundef 64, ptr noundef nonnull %18, ptr noundef nonnull %0) #7
  %20 = call i32 @crypto_onetimeauth_poly1305_init(ptr noundef nonnull %10, ptr noundef nonnull %11) #7
  call void @sodium_memzero(ptr noundef nonnull %11, i64 noundef 64) #7
  %21 = call i32 @crypto_onetimeauth_poly1305_update(ptr noundef nonnull %10, ptr noundef %5, i64 noundef %6) #7
  %22 = sub i64 0, %6
  %23 = and i64 %22, 15
  %24 = call i32 @crypto_onetimeauth_poly1305_update(ptr noundef nonnull %10, ptr noundef nonnull @_pad0, i64 noundef %23) #7
  call void @llvm.memset.p0.i64(ptr noundef nonnull align 16 dereferenceable(64) %11, i8 noundef 0, i64 noundef 64, i1 noundef false) #7
  store i8 %7, ptr %11, align 16
  %25 = call i32 @crypto_stream_chacha20_ietf_xor_ic(ptr noundef nonnull %11, ptr noundef nonnull %11, i64 noundef 64, ptr noundef nonnull %18, i32 noundef 1, ptr noundef nonnull %0) #7
  %26 = call i32 @crypto_onetimeauth_poly1305_update(ptr noundef nonnull %10, ptr noundef nonnull %11, i64 noundef 64) #7
  %27 = load i8, ptr %11, align 16
  store i8 %27, ptr %1, align 1
  %28 = getelementptr i8, ptr %1, i64 1
  %29 = call i32 @crypto_stream_chacha20_ietf_xor_ic(ptr noundef %28, ptr noundef %3, i64 noundef %4, ptr noundef nonnull %18, i32 noundef 2, ptr noundef nonnull %0) #7
  %30 = call i32 @crypto_onetimeauth_poly1305_update(ptr noundef nonnull %10, ptr noundef %28, i64 noundef %4) #7
  %31 = and i64 %4, 15
  %32 = call i32 @crypto_onetimeauth_poly1305_update(ptr noundef nonnull %10, ptr noundef nonnull @_pad0, i64 noundef %31) #7
  store i64 %6, ptr %12, align 8
  %33 = call i32 @crypto_onetimeauth_poly1305_update(ptr noundef nonnull %10, ptr noundef nonnull %12, i64 noundef 8) #7
  %34 = add nuw nsw i64 %4, 64
  store i64 %34, ptr %12, align 8
  %35 = call i32 @crypto_onetimeauth_poly1305_update(ptr noundef nonnull %10, ptr noundef nonnull %12, i64 noundef 8) #7
  %36 = getelementptr i8, ptr %28, i64 %4
  %37 = call i32 @crypto_onetimeauth_poly1305_final(ptr noundef nonnull %10, ptr noundef %36) #7
  call void @sodium_memzero(ptr noundef nonnull %10, i64 noundef 256) #7
  %38 = getelementptr i8, ptr %0, i64 36
  br label %39

39:                                               ; preds = %39, %17
  %.06.i = phi i64 [ 0, %17 ], [ %45, %39 ]
  %40 = getelementptr i8, ptr %36, i64 %.06.i
  %41 = load i8, ptr %40, align 1
  %42 = getelementptr i8, ptr %38, i64 %.06.i
  %43 = load i8, ptr %42, align 1
  %44 = xor i8 %43, %41
  store i8 %44, ptr %42, align 1
  %45 = add nuw nsw i64 %.06.i, 1
  %exitcond.not.i = icmp eq i64 %45, 8
  br i1 %exitcond.not.i, label %xor_buf.exit, label %39, !llvm.loop !4

xor_buf.exit:                                     ; preds = %39
  call void @sodium_increment(ptr noundef nonnull %18, i64 noundef 4) #7
  %46 = and i8 %7, 2
  %.not35 = icmp eq i8 %46, 0
  br i1 %.not35, label %47, label %49

47:                                               ; preds = %xor_buf.exit
  %48 = call i32 @sodium_is_zero(ptr noundef nonnull %18, i64 noundef 4) #7
  %.not36 = icmp eq i32 %48, 0
  br i1 %.not36, label %53, label %49

49:                                               ; preds = %47, %xor_buf.exit
  call void @llvm.lifetime.start.p0(i64 40, ptr nonnull %9) #7
  call void @llvm.memcpy.p0.p0.i64(ptr noundef nonnull align 16 dereferenceable(32) %9, ptr noundef nonnull align 1 dereferenceable(32) %0, i64 32, i1 false)
  %scevgep.i = getelementptr inbounds nuw i8, ptr %9, i64 32
  %50 = load i64, ptr %38, align 1
  store i64 %50, ptr %scevgep.i, align 16
  %51 = call i32 @crypto_stream_chacha20_ietf_xor(ptr noundef nonnull %9, ptr noundef nonnull %9, i64 noundef 40, ptr noundef nonnull %18, ptr noundef nonnull %0) #7
  call void @llvm.memcpy.p0.p0.i64(ptr noundef nonnull align 1 dereferenceable(32) %0, ptr noundef nonnull align 16 dereferenceable(32) %9, i64 32, i1 false)
  %52 = load i64, ptr %scevgep.i, align 16
  store i64 %52, ptr %38, align 1
  store i32 0, ptr %18, align 1
  store i8 1, ptr %18, align 1
  call void @llvm.lifetime.end.p0(i64 40, ptr nonnull %9) #7
  br label %53

53:                                               ; preds = %49, %47
  br i1 %.not, label %56, label %54

54:                                               ; preds = %53
  %55 = add nuw nsw i64 %4, 17
  store i64 %55, ptr %2, align 8
  br label %56

56:                                               ; preds = %54, %53
  call void @llvm.lifetime.end.p0(i64 8, ptr nonnull %12) #7
  call void @llvm.lifetime.end.p0(i64 64, ptr nonnull %11) #7
  call void @llvm.lifetime.end.p0(i64 256, ptr nonnull %10) #7
  ret i32 0
}